; Function Attrs: nounwind uwtable
define hidden void @mbedtls_ct_memcpy_if(i64 noundef %0, ptr noundef captures(none) %1, ptr noundef readonly captures(none) %2, ptr noundef readonly %3, i64 noundef %4) local_unnamed_addr #1 {
  %6 = tail call i64 asm sideeffect "", "=r,0,~{dirflag},~{fpsr},~{flags}"(i64 %0) #3, !srcloc !13
  %7 = xor i64 %6, -1
  %8 = icmp eq ptr %3, null
  %spec.select = select i1 %8, ptr %1, ptr %3
  %.not31 = icmp ult i64 %4, 8
  br i1 %.not31, label %.preheader, label %.lr.ph

.preheader:                                       ; preds = %.lr.ph, %5
  %.027.lcssa = phi i64 [ 0, %5 ], [ %10, %.lr.ph ]
  %9 = icmp ult i64 %.027.lcssa, %4
  br i1 %9, label %.lr.ph34, label %._crit_edge

.lr.ph:                                           ; preds = %5, %.lr.ph
  %10 = phi i64 [ %17, %.lr.ph ], [ 8, %5 ]
  %.02732 = phi i64 [ %10, %.lr.ph ], [ 0, %5 ]
  %11 = getelementptr inbounds nuw i8, ptr %2, i64 %.02732
  %.0.copyload.i = load i64, ptr %11, align 1
  %12 = and i64 %.0.copyload.i, %0
  %13 = getelementptr inbounds nuw i8, ptr %spec.select, i64 %.02732
  %.0.copyload.i30 = load i64, ptr %13, align 1
  %14 = and i64 %.0.copyload.i30, %7
  %15 = getelementptr inbounds nuw i8, ptr %1, i64 %.02732
  %16 = or i64 %14, %12
  store i64 %16, ptr %15, align 1
  %17 = add i64 %10, 8
  %.not = icmp ugt i64 %17, %4
  br i1 %.not, label %.preheader, label %.lr.ph, !llvm.loop !14

.lr.ph34:                                         ; preds = %.preheader, %.lr.ph34
  %.133 = phi i64 [ %29, %.lr.ph34 ], [ %.027.lcssa, %.preheader ]
  %18 = getelementptr inbounds nuw i8, ptr %2, i64 %.133
  %19 = load i8, ptr %18, align 1, !tbaa !3
  %20 = zext i8 %19 to i64
  %21 = and i64 %0, %20
  %22 = getelementptr inbounds nuw i8, ptr %spec.select, i64 %.133
  %23 = load i8, ptr %22, align 1, !tbaa !3
  %24 = zext i8 %23 to i64
  %25 = and i64 %24, %7
  %26 = or i64 %25, %21
  %27 = trunc nuw i64 %26 to i8
  %28 = getelementptr inbounds nuw i8, ptr %1, i64 %.133
  store i8 %27, ptr %28, align 1, !tbaa !3
  %29 = add nuw i64 %.133, 1
  %exitcond.not = icmp eq i64 %29, %4
  br i1 %exitcond.not, label %._crit_edge, label %.lr.ph34, !llvm.loop !15

._crit_edge:                                      ; preds = %.lr.ph34, %.preheader
  ret void
}